target datalayout = "e-m:e-p270:32:32-p271:32:32-p272:64:64-i64:64-i128:128-f80:128-n8:16:32:64-S128"
target triple = "x86_64-pc-linux-gnu"

@.str = private unnamed_addr constant [8 x i8] c"not set\00", align 1
@.str.1 = private unnamed_addr constant [16 x i8] c"unknown version\00", align 1
@.str.2 = private unnamed_addr constant [12 x i8] c"unknown log\00", align 1
@.str.3 = private unnamed_addr constant [11 x i8] c"unverified\00", align 1
@.str.4 = private unnamed_addr constant [8 x i8] c"invalid\00", align 1
@.str.5 = private unnamed_addr constant [6 x i8] c"valid\00", align 1
@.str.6 = private unnamed_addr constant [15 x i8] c"unknown status\00", align 1

; Function Attrs: nounwind uwtable
define ptr @SCT_validation_status_string(ptr noundef %0) #0 {
  %2 = alloca ptr, align 8
  %3 = alloca ptr, align 8
  store ptr %0, ptr %3, align 8, !tbaa !3
  %4 = load ptr, ptr %3, align 8, !tbaa !3
  %5 = call i32 @SCT_get_validation_status(ptr noundef %4)
  switch i32 %5, label %12 [
    i32 0, label %6
    i32 5, label %7
    i32 1, label %8
    i32 4, label %9
    i32 3, label %10
    i32 2, label %11
  ]

6:                                                ; preds = %1
  store ptr @.str, ptr %2, align 8
  br label %13

7:                                                ; preds = %1
  store ptr @.str.1, ptr %2, align 8
  br label %13

8:                                                ; preds = %1
  store ptr @.str.2, ptr %2, align 8
  br label %13

9:                                                ; preds = %1
  store ptr @.str.3, ptr %2, align 8
  br label %13

10:                                               ; preds = %1
  store ptr @.str.4, ptr %2, align 8
  br label %13

11:                                               ; preds = %1
  store ptr @.str.5, ptr %2, align 8
  br label %13

12:                                               ; preds = %1
  store ptr @.str.6, ptr %2, align 8
  br label %13

13:                                               ; preds = %12, %11, %10, %9, %8, %7, %6
  %14 = load ptr, ptr %2, align 8
  ret ptr %14
}