; Function Attrs: nounwind uwtable
define noundef nonnull ptr @SCT_validation_status_string(ptr noundef %0) local_unnamed_addr #0 {
  %2 = tail call i32 @SCT_get_validation_status(ptr noundef %0) #3
  %3 = icmp ult i32 %2, 6
  br i1 %3, label %switch.lookup, label %5

switch.lookup:                                    ; preds = %1
  %4 = zext nneg i32 %2 to i64
  %switch.gep = getelementptr inbounds nuw [6 x ptr], ptr @switch.table.SCT_validation_status_string, i64 0, i64 %4
  %switch.load = load ptr, ptr %switch.gep, align 8
  br label %5

5:                                                ; preds = %1, %switch.lookup
  %.0 = phi ptr [ %switch.load, %switch.lookup ], [ @.str.6, %1 ]
  ret ptr %.0
}